
AR_1.elf:     file format elf32-littlearm

Sections:
Idx Name          Size      VMA       LMA       File off  Algn
  0 .isr_vector   00000130  08000000  08000000  00010000  2**0
                  CONTENTS, ALLOC, LOAD, READONLY, DATA
  1 .text         00000328  08000130  08000130  00010130  2**2
                  CONTENTS, ALLOC, LOAD, READONLY, CODE
  2 .rodata       00000000  08000458  08000460  00010460  2**0
                  CONTENTS, ALLOC, LOAD, DATA
  3 .ARM.extab    00000000  08000458  08000458  00010460  2**0
                  CONTENTS
  4 .ARM          00000000  08000458  08000458  00010460  2**0
                  CONTENTS
  5 .preinit_array 00000000  08000458  08000460  00010460  2**0
                  CONTENTS, ALLOC, LOAD, DATA
  6 .init_array   00000004  08000458  08000458  00010458  2**2
                  CONTENTS, ALLOC, LOAD, DATA
  7 .fini_array   00000004  0800045c  0800045c  0001045c  2**2
                  CONTENTS, ALLOC, LOAD, DATA
  8 .data         00000000  20000000  20000000  00010460  2**0
                  CONTENTS, ALLOC, LOAD, DATA
  9 .bss          0000001c  20000000  08000460  00020000  2**2
                  ALLOC
 10 ._user_heap_stack 00000604  2000001c  08000460  0002001c  2**0
                  ALLOC
 11 .ARM.attributes 00000029  00000000  00000000  00010460  2**0
                  CONTENTS, READONLY
 12 .comment      00000043  00000000  00000000  00010489  2**0
                  CONTENTS, READONLY
 13 .debug_frame  0000002c  00000000  00000000  000104cc  2**2
                  CONTENTS, READONLY, DEBUGGING, OCTETS

Disassembly of section .text:

08000130 <__do_global_dtors_aux>:
 8000130:	b510      	push	{r4, lr}
 8000132:	4c05      	ldr	r4, [pc, #20]	; (8000148 <__do_global_dtors_aux+0x18>)
 8000134:	7823      	ldrb	r3, [r4, #0]
 8000136:	b933      	cbnz	r3, 8000146 <__do_global_dtors_aux+0x16>
 8000138:	4b04      	ldr	r3, [pc, #16]	; (800014c <__do_global_dtors_aux+0x1c>)
 800013a:	b113      	cbz	r3, 8000142 <__do_global_dtors_aux+0x12>
 800013c:	4804      	ldr	r0, [pc, #16]	; (8000150 <__do_global_dtors_aux+0x20>)
 800013e:	f3af 8000 	nop.w
 8000142:	2301      	movs	r3, #1
 8000144:	7023      	strb	r3, [r4, #0]
 8000146:	bd10      	pop	{r4, pc}
 8000148:	20000000 	.word	0x20000000
 800014c:	00000000 	.word	0x00000000
 8000150:	08000440 	.word	0x08000440

08000154 <frame_dummy>:
 8000154:	b508      	push	{r3, lr}
 8000156:	4b03      	ldr	r3, [pc, #12]	; (8000164 <frame_dummy+0x10>)
 8000158:	b11b      	cbz	r3, 8000162 <frame_dummy+0xe>
 800015a:	4903      	ldr	r1, [pc, #12]	; (8000168 <frame_dummy+0x14>)
 800015c:	4803      	ldr	r0, [pc, #12]	; (800016c <frame_dummy+0x18>)
 800015e:	f3af 8000 	nop.w
 8000162:	bd08      	pop	{r3, pc}
 8000164:	00000000 	.word	0x00000000
 8000168:	20000004 	.word	0x20000004
 800016c:	08000440 	.word	0x08000440

08000170 <GPIO_SetPinDirection>:
 8000170:	2801      	cmp	r0, #1
 8000172:	b510      	push	{r4, lr}
 8000174:	d025      	beq.n	80001c2 <GPIO_SetPinDirection+0x52>
 8000176:	2802      	cmp	r0, #2
 8000178:	d045      	beq.n	8000206 <GPIO_SetPinDirection+0x96>
 800017a:	b970      	cbnz	r0, 800019a <GPIO_SetPinDirection+0x2a>
 800017c:	2907      	cmp	r1, #7
 800017e:	d80d      	bhi.n	800019c <GPIO_SetPinDirection+0x2c>
 8000180:	f06f 030f 	mvn.w	r3, #15
 8000184:	482e      	ldr	r0, [pc, #184]	; (8000240 <GPIO_SetPinDirection+0xd0>)
 8000186:	0089      	lsls	r1, r1, #2
 8000188:	f8d0 4800 	ldr.w	r4, [r0, #2048]	; 0x800
 800018c:	410b      	asrs	r3, r1
 800018e:	4023      	ands	r3, r4
 8000190:	fa42 f101 	asr.w	r1, r2, r1
 8000194:	430b      	orrs	r3, r1
 8000196:	f8c0 3800 	str.w	r3, [r0, #2048]	; 0x800
 800019a:	bd10      	pop	{r4, pc}
 800019c:	290f      	cmp	r1, #15
 800019e:	d8fc      	bhi.n	800019a <GPIO_SetPinDirection+0x2a>
 80001a0:	f1a1 0308 	sub.w	r3, r1, #8
 80001a4:	f06f 010f 	mvn.w	r1, #15
 80001a8:	4825      	ldr	r0, [pc, #148]	; (8000240 <GPIO_SetPinDirection+0xd0>)
 80001aa:	b2db      	uxtb	r3, r3
 80001ac:	f8d0 4804 	ldr.w	r4, [r0, #2052]	; 0x804
 80001b0:	009b      	lsls	r3, r3, #2
 80001b2:	4119      	asrs	r1, r3
 80001b4:	4021      	ands	r1, r4
 80001b6:	fa42 f303 	asr.w	r3, r2, r3
 80001ba:	430b      	orrs	r3, r1
 80001bc:	f8c0 3804 	str.w	r3, [r0, #2052]	; 0x804
 80001c0:	e7eb      	b.n	800019a <GPIO_SetPinDirection+0x2a>
 80001c2:	2907      	cmp	r1, #7
 80001c4:	d80d      	bhi.n	80001e2 <GPIO_SetPinDirection+0x72>
 80001c6:	f06f 030f 	mvn.w	r3, #15
 80001ca:	481d      	ldr	r0, [pc, #116]	; (8000240 <GPIO_SetPinDirection+0xd0>)
 80001cc:	0089      	lsls	r1, r1, #2
 80001ce:	f8d0 4c00 	ldr.w	r4, [r0, #3072]	; 0xc00
 80001d2:	410b      	asrs	r3, r1
 80001d4:	4023      	ands	r3, r4
 80001d6:	fa42 f101 	asr.w	r1, r2, r1
 80001da:	430b      	orrs	r3, r1
 80001dc:	f8c0 3c00 	str.w	r3, [r0, #3072]	; 0xc00
 80001e0:	e7db      	b.n	800019a <GPIO_SetPinDirection+0x2a>
 80001e2:	290f      	cmp	r1, #15
 80001e4:	d8d9      	bhi.n	800019a <GPIO_SetPinDirection+0x2a>
 80001e6:	f06f 030f 	mvn.w	r3, #15
 80001ea:	4815      	ldr	r0, [pc, #84]	; (8000240 <GPIO_SetPinDirection+0xd0>)
 80001ec:	3908      	subs	r1, #8
 80001ee:	b2c9      	uxtb	r1, r1
 80001f0:	f8d0 4c04 	ldr.w	r4, [r0, #3076]	; 0xc04
 80001f4:	0089      	lsls	r1, r1, #2
 80001f6:	410b      	asrs	r3, r1
 80001f8:	4023      	ands	r3, r4
 80001fa:	fa42 f101 	asr.w	r1, r2, r1
 80001fe:	430b      	orrs	r3, r1
 8000200:	f8c0 3c04 	str.w	r3, [r0, #3076]	; 0xc04
 8000204:	e7c9      	b.n	800019a <GPIO_SetPinDirection+0x2a>
 8000206:	2907      	cmp	r1, #7
 8000208:	d80b      	bhi.n	8000222 <GPIO_SetPinDirection+0xb2>
 800020a:	f06f 030f 	mvn.w	r3, #15
 800020e:	480d      	ldr	r0, [pc, #52]	; (8000244 <GPIO_SetPinDirection+0xd4>)
 8000210:	0089      	lsls	r1, r1, #2
 8000212:	6804      	ldr	r4, [r0, #0]
 8000214:	410b      	asrs	r3, r1
 8000216:	4023      	ands	r3, r4
 8000218:	fa42 f101 	asr.w	r1, r2, r1
 800021c:	430b      	orrs	r3, r1
 800021e:	6003      	str	r3, [r0, #0]
 8000220:	e7bb      	b.n	800019a <GPIO_SetPinDirection+0x2a>
 8000222:	290f      	cmp	r1, #15
 8000224:	d8b9      	bhi.n	800019a <GPIO_SetPinDirection+0x2a>
 8000226:	f06f 030f 	mvn.w	r3, #15
 800022a:	4806      	ldr	r0, [pc, #24]	; (8000244 <GPIO_SetPinDirection+0xd4>)
 800022c:	3908      	subs	r1, #8
 800022e:	b2c9      	uxtb	r1, r1
 8000230:	6844      	ldr	r4, [r0, #4]
 8000232:	0089      	lsls	r1, r1, #2
 8000234:	410b      	asrs	r3, r1
 8000236:	4023      	ands	r3, r4
 8000238:	410a      	asrs	r2, r1
 800023a:	4313      	orrs	r3, r2
 800023c:	6043      	str	r3, [r0, #4]
 800023e:	e7ac      	b.n	800019a <GPIO_SetPinDirection+0x2a>
 8000240:	40010000 	.word	0x40010000
 8000244:	40011000 	.word	0x40011000

08000248 <GPIO_SetPinValue>:
 8000248:	2801      	cmp	r0, #1
 800024a:	d015      	beq.n	8000278 <GPIO_SetPinValue+0x30>
 800024c:	2802      	cmp	r0, #2
 800024e:	d027      	beq.n	80002a0 <GPIO_SetPinValue+0x58>
 8000250:	bb68      	cbnz	r0, 80002ae <GPIO_SetPinValue+0x66>
 8000252:	2a01      	cmp	r2, #1
 8000254:	d107      	bne.n	8000266 <GPIO_SetPinValue+0x1e>
 8000256:	481b      	ldr	r0, [pc, #108]	; (80002c4 <GPIO_SetPinValue+0x7c>)
 8000258:	408a      	lsls	r2, r1
 800025a:	f8d0 380c 	ldr.w	r3, [r0, #2060]	; 0x80c
 800025e:	4313      	orrs	r3, r2
 8000260:	f8c0 380c 	str.w	r3, [r0, #2060]	; 0x80c
 8000264:	4770      	bx	lr
 8000266:	bb12      	cbnz	r2, 80002ae <GPIO_SetPinValue+0x66>
 8000268:	2201      	movs	r2, #1
 800026a:	4816      	ldr	r0, [pc, #88]	; (80002c4 <GPIO_SetPinValue+0x7c>)
 800026c:	408a      	lsls	r2, r1
 800026e:	f8d0 380c 	ldr.w	r3, [r0, #2060]	; 0x80c
 8000272:	ea23 0302 	bic.w	r3, r3, r2
 8000276:	e7f3      	b.n	8000260 <GPIO_SetPinValue+0x18>
 8000278:	2a01      	cmp	r2, #1
 800027a:	d107      	bne.n	800028c <GPIO_SetPinValue+0x44>
 800027c:	4811      	ldr	r0, [pc, #68]	; (80002c4 <GPIO_SetPinValue+0x7c>)
 800027e:	408a      	lsls	r2, r1
 8000280:	f8d0 3c0c 	ldr.w	r3, [r0, #3084]	; 0xc0c
 8000284:	4313      	orrs	r3, r2
 8000286:	f8c0 3c0c 	str.w	r3, [r0, #3084]	; 0xc0c
 800028a:	4770      	bx	lr
 800028c:	b97a      	cbnz	r2, 80002ae <GPIO_SetPinValue+0x66>
 800028e:	4a0d      	ldr	r2, [pc, #52]	; (80002c4 <GPIO_SetPinValue+0x7c>)
 8000290:	4088      	lsls	r0, r1
 8000292:	f8d2 3c0c 	ldr.w	r3, [r2, #3084]	; 0xc0c
 8000296:	ea23 0300 	bic.w	r3, r3, r0
 800029a:	f8c2 3c0c 	str.w	r3, [r2, #3084]	; 0xc0c
 800029e:	4770      	bx	lr
 80002a0:	2a01      	cmp	r2, #1
 80002a2:	d105      	bne.n	80002b0 <GPIO_SetPinValue+0x68>
 80002a4:	4808      	ldr	r0, [pc, #32]	; (80002c8 <GPIO_SetPinValue+0x80>)
 80002a6:	408a      	lsls	r2, r1
 80002a8:	68c3      	ldr	r3, [r0, #12]
 80002aa:	4313      	orrs	r3, r2
 80002ac:	60c3      	str	r3, [r0, #12]
 80002ae:	4770      	bx	lr
 80002b0:	2a00      	cmp	r2, #0
 80002b2:	d1fc      	bne.n	80002ae <GPIO_SetPinValue+0x66>
 80002b4:	2201      	movs	r2, #1
 80002b6:	4804      	ldr	r0, [pc, #16]	; (80002c8 <GPIO_SetPinValue+0x80>)
 80002b8:	408a      	lsls	r2, r1
 80002ba:	68c3      	ldr	r3, [r0, #12]
 80002bc:	ea23 0302 	bic.w	r3, r3, r2
 80002c0:	e7f4      	b.n	80002ac <GPIO_SetPinValue+0x64>
 80002c2:	bf00      	nop
 80002c4:	40010000 	.word	0x40010000
 80002c8:	40011000 	.word	0x40011000

080002cc <RCC_voidInitSysClock>:
 80002cc:	f44f 3180 	mov.w	r1, #65536	; 0x10000
 80002d0:	2201      	movs	r2, #1
 80002d2:	4b02      	ldr	r3, [pc, #8]	; (80002dc <RCC_voidInitSysClock+0x10>)
 80002d4:	e9c3 1200 	strd	r1, r2, [r3]
 80002d8:	4770      	bx	lr
 80002da:	bf00      	nop
 80002dc:	40021000 	.word	0x40021000

080002e0 <RCC_voidEnableClock>:
 80002e0:	291f      	cmp	r1, #31
 80002e2:	d81a      	bhi.n	800031a <RCC_voidEnableClock+0x3a>
 80002e4:	2801      	cmp	r0, #1
 80002e6:	d00c      	beq.n	8000302 <RCC_voidEnableClock+0x22>
 80002e8:	2802      	cmp	r0, #2
 80002ea:	d010      	beq.n	800030e <RCC_voidEnableClock+0x2e>
 80002ec:	b9a8      	cbnz	r0, 800031a <RCC_voidEnableClock+0x3a>
 80002ee:	2201      	movs	r2, #1
 80002f0:	f100 4080 	add.w	r0, r0, #1073741824	; 0x40000000
 80002f4:	f500 3004 	add.w	r0, r0, #135168	; 0x21000
 80002f8:	6943      	ldr	r3, [r0, #20]
 80002fa:	408a      	lsls	r2, r1
 80002fc:	4313      	orrs	r3, r2
 80002fe:	6143      	str	r3, [r0, #20]
 8000300:	4770      	bx	lr
 8000302:	4a06      	ldr	r2, [pc, #24]	; (800031c <RCC_voidEnableClock+0x3c>)
 8000304:	4088      	lsls	r0, r1
 8000306:	69d3      	ldr	r3, [r2, #28]
 8000308:	4303      	orrs	r3, r0
 800030a:	61d3      	str	r3, [r2, #28]
 800030c:	4770      	bx	lr
 800030e:	2201      	movs	r2, #1
 8000310:	4802      	ldr	r0, [pc, #8]	; (800031c <RCC_voidEnableClock+0x3c>)
 8000312:	408a      	lsls	r2, r1
 8000314:	6983      	ldr	r3, [r0, #24]
 8000316:	4313      	orrs	r3, r2
 8000318:	6183      	str	r3, [r0, #24]
 800031a:	4770      	bx	lr
 800031c:	40021000 	.word	0x40021000

08000320 <main>:
 8000320:	b508      	push	{r3, lr}
 8000322:	f7ff ffd3 	bl	80002cc <RCC_voidInitSysClock>
 8000326:	2102      	movs	r1, #2
 8000328:	4608      	mov	r0, r1
 800032a:	f7ff ffd9 	bl	80002e0 <RCC_voidEnableClock>
 800032e:	2103      	movs	r1, #3
 8000330:	2002      	movs	r0, #2
 8000332:	f7ff ffd5 	bl	80002e0 <RCC_voidEnableClock>
 8000336:	2104      	movs	r1, #4
 8000338:	2002      	movs	r0, #2
 800033a:	f7ff ffd1 	bl	80002e0 <RCC_voidEnableClock>
 800033e:	2202      	movs	r2, #2
 8000340:	210c      	movs	r1, #12
 8000342:	2000      	movs	r0, #0
 8000344:	f7ff ff14 	bl	8000170 <GPIO_SetPinDirection>
 8000348:	2202      	movs	r2, #2
 800034a:	2106      	movs	r1, #6
 800034c:	2001      	movs	r0, #1
 800034e:	f7ff ff0f 	bl	8000170 <GPIO_SetPinDirection>
 8000352:	2202      	movs	r2, #2
 8000354:	2107      	movs	r1, #7
 8000356:	2001      	movs	r0, #1
 8000358:	f7ff ff0a 	bl	8000170 <GPIO_SetPinDirection>
 800035c:	2202      	movs	r2, #2
 800035e:	2103      	movs	r1, #3
 8000360:	2001      	movs	r0, #1
 8000362:	f7ff ff05 	bl	8000170 <GPIO_SetPinDirection>
 8000366:	2202      	movs	r2, #2
 8000368:	2104      	movs	r1, #4
 800036a:	2001      	movs	r0, #1
 800036c:	f7ff ff00 	bl	8000170 <GPIO_SetPinDirection>
 8000370:	2201      	movs	r2, #1
 8000372:	210c      	movs	r1, #12
 8000374:	2000      	movs	r0, #0
 8000376:	f7ff ff67 	bl	8000248 <GPIO_SetPinValue>
 800037a:	2201      	movs	r2, #1
 800037c:	2106      	movs	r1, #6
 800037e:	4610      	mov	r0, r2
 8000380:	f7ff ff62 	bl	8000248 <GPIO_SetPinValue>
 8000384:	2201      	movs	r2, #1
 8000386:	2107      	movs	r1, #7
 8000388:	4610      	mov	r0, r2
 800038a:	f7ff ff5d 	bl	8000248 <GPIO_SetPinValue>
 800038e:	2201      	movs	r2, #1
 8000390:	2103      	movs	r1, #3
 8000392:	4610      	mov	r0, r2
 8000394:	f7ff ff58 	bl	8000248 <GPIO_SetPinValue>
 8000398:	2201      	movs	r2, #1
 800039a:	2104      	movs	r1, #4
 800039c:	4610      	mov	r0, r2
 800039e:	f7ff ff53 	bl	8000248 <GPIO_SetPinValue>
 80003a2:	e7e5      	b.n	8000370 <main+0x50>

080003a4 <Reset_Handler>:
 80003a4:	480d      	ldr	r0, [pc, #52]	; (80003dc <LoopForever+0x2>)
 80003a6:	4685      	mov	sp, r0
 80003a8:	f3af 8000 	nop.w
 80003ac:	480c      	ldr	r0, [pc, #48]	; (80003e0 <LoopForever+0x6>)
 80003ae:	490d      	ldr	r1, [pc, #52]	; (80003e4 <LoopForever+0xa>)
 80003b0:	4a0d      	ldr	r2, [pc, #52]	; (80003e8 <LoopForever+0xe>)
 80003b2:	2300      	movs	r3, #0
 80003b4:	e002      	b.n	80003bc <LoopCopyDataInit>

080003b6 <CopyDataInit>:
 80003b6:	58d4      	ldr	r4, [r2, r3]
 80003b8:	50c4      	str	r4, [r0, r3]
 80003ba:	3304      	adds	r3, #4

080003bc <LoopCopyDataInit>:
 80003bc:	18c4      	adds	r4, r0, r3
 80003be:	428c      	cmp	r4, r1
 80003c0:	d3f9      	bcc.n	80003b6 <CopyDataInit>
 80003c2:	4a0a      	ldr	r2, [pc, #40]	; (80003ec <LoopForever+0x12>)
 80003c4:	4c0a      	ldr	r4, [pc, #40]	; (80003f0 <LoopForever+0x16>)
 80003c6:	2300      	movs	r3, #0
 80003c8:	e001      	b.n	80003ce <LoopFillZerobss>

080003ca <FillZerobss>:
 80003ca:	6013      	str	r3, [r2, #0]
 80003cc:	3204      	adds	r2, #4

080003ce <LoopFillZerobss>:
 80003ce:	42a2      	cmp	r2, r4
 80003d0:	d3fb      	bcc.n	80003ca <FillZerobss>
 80003d2:	f000 f811 	bl	80003f8 <__libc_init_array>
 80003d6:	f7ff ffa3 	bl	8000320 <main>

080003da <LoopForever>:
 80003da:	e7fe      	b.n	80003da <LoopForever>
 80003dc:	20005000 	.word	0x20005000
 80003e0:	20000000 	.word	0x20000000
 80003e4:	20000000 	.word	0x20000000
 80003e8:	08000460 	.word	0x08000460
 80003ec:	20000000 	.word	0x20000000
 80003f0:	2000001c 	.word	0x2000001c

080003f4 <ADC1_2_IRQHandler>:
 80003f4:	e7fe      	b.n	80003f4 <ADC1_2_IRQHandler>
	...

080003f8 <__libc_init_array>:
 80003f8:	b570      	push	{r4, r5, r6, lr}
 80003fa:	2600      	movs	r6, #0
 80003fc:	4d0c      	ldr	r5, [pc, #48]	; (8000430 <__libc_init_array+0x38>)
 80003fe:	4c0d      	ldr	r4, [pc, #52]	; (8000434 <__libc_init_array+0x3c>)
 8000400:	1b64      	subs	r4, r4, r5
 8000402:	10a4      	asrs	r4, r4, #2
 8000404:	42a6      	cmp	r6, r4
 8000406:	d109      	bne.n	800041c <__libc_init_array+0x24>
 8000408:	f000 f81a 	bl	8000440 <_init>
 800040c:	2600      	movs	r6, #0
 800040e:	4d0a      	ldr	r5, [pc, #40]	; (8000438 <__libc_init_array+0x40>)
 8000410:	4c0a      	ldr	r4, [pc, #40]	; (800043c <__libc_init_array+0x44>)
 8000412:	1b64      	subs	r4, r4, r5
 8000414:	10a4      	asrs	r4, r4, #2
 8000416:	42a6      	cmp	r6, r4
 8000418:	d105      	bne.n	8000426 <__libc_init_array+0x2e>
 800041a:	bd70      	pop	{r4, r5, r6, pc}
 800041c:	f855 3b04 	ldr.w	r3, [r5], #4
 8000420:	4798      	blx	r3
 8000422:	3601      	adds	r6, #1
 8000424:	e7ee      	b.n	8000404 <__libc_init_array+0xc>
 8000426:	f855 3b04 	ldr.w	r3, [r5], #4
 800042a:	4798      	blx	r3
 800042c:	3601      	adds	r6, #1
 800042e:	e7f2      	b.n	8000416 <__libc_init_array+0x1e>
 8000430:	08000458 	.word	0x08000458
 8000434:	08000458 	.word	0x08000458
 8000438:	08000458 	.word	0x08000458
 800043c:	0800045c 	.word	0x0800045c

08000440 <_init>:
 8000440:	b5f8      	push	{r3, r4, r5, r6, r7, lr}
 8000442:	bf00      	nop
 8000444:	bcf8      	pop	{r3, r4, r5, r6, r7}
 8000446:	bc08      	pop	{r3}
 8000448:	469e      	mov	lr, r3
 800044a:	4770      	bx	lr

0800044c <_fini>:
 800044c:	b5f8      	push	{r3, r4, r5, r6, r7, lr}
 800044e:	bf00      	nop
 8000450:	bcf8      	pop	{r3, r4, r5, r6, r7}
 8000452:	bc08      	pop	{r3}
 8000454:	469e      	mov	lr, r3
 8000456:	4770      	bx	lr
